target datalayout = "e-m:e-p270:32:32-p271:32:32-p272:64:64-i64:64-i128:128-f80:128-n8:16:32:64-S128"
target triple = "x86_64-pc-linux-gnu"

@.str.35 = private unnamed_addr constant [1 x i8] zeroinitializer, align 1
@.str.36 = private unnamed_addr constant [5 x i8] c"%11s\00", align 1
@.str.37 = private unnamed_addr constant [2 x i8] c" \00", align 1
@.str.39 = private unnamed_addr constant [2 x i8] c"B\00", align 1
@.str.40 = private unnamed_addr constant [8 x i8] c"%d %-3s\00", align 1
@.str.41 = private unnamed_addr constant [2 x i8] c"K\00", align 1
@.str.42 = private unnamed_addr constant [2 x i8] c"M\00", align 1
@.str.43 = private unnamed_addr constant [2 x i8] c"G\00", align 1
@.str.44 = private unnamed_addr constant [7 x i8] c"%s%s%s\00", align 1
@.str.45 = private unnamed_addr constant [2 x i8] c"i\00", align 1
@.str.46 = private unnamed_addr constant [13 x i8] c"%ld.%ld %-3s\00", align 1

; Function Attrs: nounwind uwtable
define internal void @mi_printf_amount(i64 noundef %0, i64 noundef %1, ptr noundef %2, ptr noundef %3, ptr noundef %4) #0 {
  %6 = alloca i64, align 8
  %7 = alloca i64, align 8
  %8 = alloca ptr, align 8
  %9 = alloca ptr, align 8
  %10 = alloca ptr, align 8
  %11 = alloca [32 x i8], align 16
  %12 = alloca i32, align 4
  %13 = alloca ptr, align 8
  %14 = alloca i64, align 8
  %15 = alloca i64, align 8
  %16 = alloca i64, align 8
  %17 = alloca ptr, align 8
  %18 = alloca i64, align 8
  %19 = alloca i64, align 8
  %20 = alloca i64, align 8
  %21 = alloca [8 x i8], align 1
  store i64 %0, ptr %6, align 8, !tbaa !8
  store i64 %1, ptr %7, align 8, !tbaa !8
  store ptr %2, ptr %8, align 8, !tbaa !13
  store ptr %3, ptr %9, align 8, !tbaa !13
  store ptr %4, ptr %10, align 8, !tbaa !49
  call void @llvm.lifetime.start.p0(i64 32, ptr %11) #7
  %22 = getelementptr inbounds [32 x i8], ptr %11, i64 0, i64 0
  store i8 0, ptr %22, align 16, !tbaa !43
  call void @llvm.lifetime.start.p0(i64 4, ptr %12) #7
  store i32 32, ptr %12, align 4, !tbaa !53
  call void @llvm.lifetime.start.p0(i64 8, ptr %13) #7
  %23 = load i64, ptr %7, align 8, !tbaa !8
  %24 = icmp sle i64 %23, 0
  %25 = select i1 %24, ptr @.str.37, ptr @.str.39
  store ptr %25, ptr %13, align 8, !tbaa !49
  call void @llvm.lifetime.start.p0(i64 8, ptr %14) #7
  %26 = load i64, ptr %7, align 8, !tbaa !8
  %27 = icmp eq i64 %26, 0
  %28 = select i1 %27, i32 1000, i32 1024
  %29 = sext i32 %28 to i64
  store i64 %29, ptr %14, align 8, !tbaa !8
  %30 = load i64, ptr %7, align 8, !tbaa !8
  %31 = icmp sgt i64 %30, 0
  br i1 %31, label %32, label %36

32:                                               ; preds = %5
  %33 = load i64, ptr %7, align 8, !tbaa !8
  %34 = load i64, ptr %6, align 8, !tbaa !8
  %35 = mul nsw i64 %34, %33
  store i64 %35, ptr %6, align 8, !tbaa !8
  br label %36

36:                                               ; preds = %32, %5
  call void @llvm.lifetime.start.p0(i64 8, ptr %15) #7
  %37 = load i64, ptr %6, align 8, !tbaa !8
  %38 = icmp slt i64 %37, 0
  br i1 %38, label %39, label %42

39:                                               ; preds = %36
  %40 = load i64, ptr %6, align 8, !tbaa !8
  %41 = sub nsw i64 0, %40
  br label %44

42:                                               ; preds = %36
  %43 = load i64, ptr %6, align 8, !tbaa !8
  br label %44

44:                                               ; preds = %42, %39
  %45 = phi i64 [ %41, %39 ], [ %43, %42 ]
  store i64 %45, ptr %15, align 8, !tbaa !8
  %46 = load i64, ptr %15, align 8, !tbaa !8
  %47 = load i64, ptr %14, align 8, !tbaa !8
  %48 = icmp slt i64 %46, %47
  br i1 %48, label %49, label %73

49:                                               ; preds = %44
  %50 = load i64, ptr %6, align 8, !tbaa !8
  %51 = icmp ne i64 %50, 1
  br i1 %51, label %58, label %52

52:                                               ; preds = %49
  %53 = load ptr, ptr %13, align 8, !tbaa !49
  %54 = getelementptr inbounds i8, ptr %53, i64 0
  %55 = load i8, ptr %54, align 1, !tbaa !43
  %56 = sext i8 %55 to i32
  %57 = icmp ne i32 %56, 66
  br i1 %57, label %58, label %72

58:                                               ; preds = %52, %49
  %59 = getelementptr inbounds [32 x i8], ptr %11, i64 0, i64 0
  %60 = load i32, ptr %12, align 4, !tbaa !53
  %61 = sext i32 %60 to i64
  %62 = load i64, ptr %6, align 8, !tbaa !8
  %63 = trunc i64 %62 to i32
  %64 = load i64, ptr %6, align 8, !tbaa !8
  %65 = icmp eq i64 %64, 0
  br i1 %65, label %66, label %67

66:                                               ; preds = %58
  br label %69

67:                                               ; preds = %58
  %68 = load ptr, ptr %13, align 8, !tbaa !49
  br label %69

69:                                               ; preds = %67, %66
  %70 = phi ptr [ @.str.35, %66 ], [ %68, %67 ]
  %71 = call i32 (ptr, i64, ptr, ...) @snprintf(ptr noundef %59, i64 noundef %61, ptr noundef @.str.40, i32 noundef %63, ptr noundef %70) #7
  br label %72

72:                                               ; preds = %69, %52
  br label %125

73:                                               ; preds = %44
  call void @llvm.lifetime.start.p0(i64 8, ptr %16) #7
  %74 = load i64, ptr %14, align 8, !tbaa !8
  store i64 %74, ptr %16, align 8, !tbaa !8
  call void @llvm.lifetime.start.p0(i64 8, ptr %17) #7
  store ptr @.str.41, ptr %17, align 8, !tbaa !49
  %75 = load i64, ptr %15, align 8, !tbaa !8
  %76 = load i64, ptr %16, align 8, !tbaa !8
  %77 = load i64, ptr %14, align 8, !tbaa !8
  %78 = mul nsw i64 %76, %77
  %79 = icmp sge i64 %75, %78
  br i1 %79, label %80, label %84

80:                                               ; preds = %73
  %81 = load i64, ptr %14, align 8, !tbaa !8
  %82 = load i64, ptr %16, align 8, !tbaa !8
  %83 = mul nsw i64 %82, %81
  store i64 %83, ptr %16, align 8, !tbaa !8
  store ptr @.str.42, ptr %17, align 8, !tbaa !49
  br label %84

84:                                               ; preds = %80, %73
  %85 = load i64, ptr %15, align 8, !tbaa !8
  %86 = load i64, ptr %16, align 8, !tbaa !8
  %87 = load i64, ptr %14, align 8, !tbaa !8
  %88 = mul nsw i64 %86, %87
  %89 = icmp sge i64 %85, %88
  br i1 %89, label %90, label %94

90:                                               ; preds = %84
  %91 = load i64, ptr %14, align 8, !tbaa !8
  %92 = load i64, ptr %16, align 8, !tbaa !8
  %93 = mul nsw i64 %92, %91
  store i64 %93, ptr %16, align 8, !tbaa !8
  store ptr @.str.43, ptr %17, align 8, !tbaa !49
  br label %94

94:                                               ; preds = %90, %84
  call void @llvm.lifetime.start.p0(i64 8, ptr %18) #7
  %95 = load i64, ptr %6, align 8, !tbaa !8
  %96 = load i64, ptr %16, align 8, !tbaa !8
  %97 = sdiv i64 %96, 10
  %98 = sdiv i64 %95, %97
  store i64 %98, ptr %18, align 8, !tbaa !8
  call void @llvm.lifetime.start.p0(i64 8, ptr %19) #7
  %99 = load i64, ptr %18, align 8, !tbaa !8
  %100 = sdiv i64 %99, 10
  store i64 %100, ptr %19, align 8, !tbaa !8
  call void @llvm.lifetime.start.p0(i64 8, ptr %20) #7
  %101 = load i64, ptr %18, align 8, !tbaa !8
  %102 = srem i64 %101, 10
  store i64 %102, ptr %20, align 8, !tbaa !8
  call void @llvm.lifetime.start.p0(i64 8, ptr %21) #7
  %103 = getelementptr inbounds [8 x i8], ptr %21, i64 0, i64 0
  %104 = load ptr, ptr %17, align 8, !tbaa !49
  %105 = load i64, ptr %14, align 8, !tbaa !8
  %106 = icmp eq i64 %105, 1024
  %107 = select i1 %106, ptr @.str.45, ptr @.str.35
  %108 = load ptr, ptr %13, align 8, !tbaa !49
  %109 = call i32 (ptr, i64, ptr, ...) @snprintf(ptr noundef %103, i64 noundef 8, ptr noundef @.str.44, ptr noundef %104, ptr noundef %107, ptr noundef %108) #7
  %110 = getelementptr inbounds [32 x i8], ptr %11, i64 0, i64 0
  %111 = load i32, ptr %12, align 4, !tbaa !53
  %112 = sext i32 %111 to i64
  %113 = load i64, ptr %19, align 8, !tbaa !8
  %114 = load i64, ptr %20, align 8, !tbaa !8
  %115 = icmp slt i64 %114, 0
  br i1 %115, label %116, label %119

116:                                              ; preds = %94
  %117 = load i64, ptr %20, align 8, !tbaa !8
  %118 = sub nsw i64 0, %117
  br label %121

119:                                              ; preds = %94
  %120 = load i64, ptr %20, align 8, !tbaa !8
  br label %121

121:                                              ; preds = %119, %116
  %122 = phi i64 [ %118, %116 ], [ %120, %119 ]
  %123 = getelementptr inbounds [8 x i8], ptr %21, i64 0, i64 0
  %124 = call i32 (ptr, i64, ptr, ...) @snprintf(ptr noundef %110, i64 noundef %112, ptr noundef @.str.46, i64 noundef %113, i64 noundef %122, ptr noundef %123) #7
  call void @llvm.lifetime.end.p0(i64 8, ptr %21) #7
  call void @llvm.lifetime.end.p0(i64 8, ptr %20) #7
  call void @llvm.lifetime.end.p0(i64 8, ptr %19) #7
  call void @llvm.lifetime.end.p0(i64 8, ptr %18) #7
  call void @llvm.lifetime.end.p0(i64 8, ptr %17) #7
  call void @llvm.lifetime.end.p0(i64 8, ptr %16) #7
  br label %125

125:                                              ; preds = %121, %72
  %126 = load ptr, ptr %8, align 8, !tbaa !13
  %127 = load ptr, ptr %9, align 8, !tbaa !13
  %128 = load ptr, ptr %10, align 8, !tbaa !49
  %129 = icmp eq ptr %128, null
  br i1 %129, label %130, label %131

130:                                              ; preds = %125
  br label %133

131:                                              ; preds = %125
  %132 = load ptr, ptr %10, align 8, !tbaa !49
  br label %133

133:                                              ; preds = %131, %130
  %134 = phi ptr [ @.str.36, %130 ], [ %132, %131 ]
  %135 = getelementptr inbounds [32 x i8], ptr %11, i64 0, i64 0
  call void (ptr, ptr, ptr, ...) @_mi_fprintf(ptr noundef %126, ptr noundef %127, ptr noundef %134, ptr noundef %135)
  call void @llvm.lifetime.end.p0(i64 8, ptr %15) #7
  call void @llvm.lifetime.end.p0(i64 8, ptr %14) #7
  call void @llvm.lifetime.end.p0(i64 8, ptr %13) #7
  call void @llvm.lifetime.end.p0(i64 4, ptr %12) #7
  call void @llvm.lifetime.end.p0(i64 32, ptr %11) #7
  ret void
}