; Function Attrs: nounwind uwtable
define internal fastcc void @mi_printf_amount(i64 noundef %0, i64 noundef range(i64 -1, 2) %1, ptr noundef nonnull %2, ptr noundef %3) unnamed_addr #2 {
  %5 = alloca [32 x i8], align 16
  %6 = alloca [8 x i8], align 1
  call void @llvm.lifetime.start.p0(i64 32, ptr nonnull %5) #10
  store i8 0, ptr %5, align 16, !tbaa !38
  %7 = icmp slt i64 %1, 1
  %8 = select i1 %7, ptr @.str.37, ptr @.str.39
  %.not51 = icmp eq i64 %1, 0
  %9 = select i1 %.not51, i64 1000, i64 1024
  %10 = tail call i64 @llvm.abs.i64(i64 %0, i1 true)
  %11 = icmp samesign ult i64 %10, %9
  br i1 %11, label %12, label %19

12:                                               ; preds = %4
  %.not52 = icmp eq i64 %0, 1
  %13 = load i8, ptr %8, align 1
  %.not53 = icmp eq i8 %13, 66
  %or.cond = select i1 %.not52, i1 %.not53, i1 false
  br i1 %or.cond, label %30, label %14

14:                                               ; preds = %12
  %15 = trunc i64 %0 to i32
  %16 = icmp eq i64 %0, 0
  %17 = select i1 %16, ptr @.str.35, ptr %8
  %18 = call i32 (ptr, i64, ptr, ...) @snprintf(ptr noundef nonnull dereferenceable(1) %5, i64 noundef 32, ptr noundef nonnull @.str.40, i32 noundef %15, ptr noundef nonnull %17) #10
  br label %30

19:                                               ; preds = %4
  %20 = select i1 %.not51, i64 1000000, i64 1048576
  %.not = icmp samesign ult i64 %10, %20
  %spec.select = select i1 %.not, ptr @.str.41, ptr @.str.42
  %spec.select54 = select i1 %.not, i64 %9, i64 %20
  %21 = mul nuw nsw i64 %spec.select54, %9
  %.not50 = icmp samesign ult i64 %10, %21
  %.144 = select i1 %.not50, ptr %spec.select, ptr @.str.43
  %.1 = select i1 %.not50, i64 %spec.select54, i64 %21
  %.lhs.trunc = trunc nuw nsw i64 %.1 to i32
  %22 = udiv i32 %.lhs.trunc, 10
  %.zext = zext nneg i32 %22 to i64
  %23 = sdiv i64 %0, %.zext
  %24 = sdiv i64 %23, 10
  %25 = srem i64 %23, 10
  call void @llvm.lifetime.start.p0(i64 8, ptr nonnull %6) #10
  %26 = select i1 %.not51, ptr @.str.35, ptr @.str.45
  %27 = call i32 (ptr, i64, ptr, ...) @snprintf(ptr noundef nonnull dereferenceable(1) %6, i64 noundef 8, ptr noundef nonnull @.str.44, ptr noundef nonnull %.144, ptr noundef nonnull %26, ptr noundef nonnull %8) #10
  %28 = tail call i64 @llvm.abs.i64(i64 %25, i1 true)
  %29 = call i32 (ptr, i64, ptr, ...) @snprintf(ptr noundef nonnull dereferenceable(1) %5, i64 noundef 32, ptr noundef nonnull @.str.46, i64 noundef %24, i64 noundef %28, ptr noundef nonnull %6) #10
  call void @llvm.lifetime.end.p0(i64 8, ptr nonnull %6) #10
  br label %30

30:                                               ; preds = %12, %14, %19
  %31 = icmp eq ptr %3, null
  %32 = select i1 %31, ptr @.str.36, ptr %3
  call void (ptr, ptr, ptr, ...) @_mi_fprintf(ptr noundef nonnull @mi_buffered_out, ptr noundef nonnull %2, ptr noundef nonnull %32, ptr noundef nonnull %5) #10
  call void @llvm.lifetime.end.p0(i64 32, ptr nonnull %5) #10
  ret void
}